target datalayout = "e-m:e-p270:32:32-p271:32:32-p272:64:64-i64:64-i128:128-f80:128-n8:16:32:64-S128"
target triple = "x86_64-pc-linux-gnu"

%class.check_logic = type { ptr }

; Function Attrs: mustprogress uwtable
define hidden noundef zeroext i1 @_ZN11check_logicclEP4expr(ptr noundef nonnull align 8 dereferenceable(8) %0, ptr noundef %1) #5 align 2 {
  %3 = alloca i1, align 1
  %4 = alloca ptr, align 8
  %5 = alloca ptr, align 8
  store ptr %0, ptr %4, align 8, !tbaa !3
  store ptr %1, ptr %5, align 8, !tbaa !73
  %6 = load ptr, ptr %4, align 8
  %7 = getelementptr inbounds nuw %class.check_logic, ptr %6, i32 0, i32 0
  %8 = load ptr, ptr %7, align 8, !tbaa !8
  %9 = icmp ne ptr %8, null
  br i1 %9, label %10, label %15

10:                                               ; preds = %2
  %11 = getelementptr inbounds nuw %class.check_logic, ptr %6, i32 0, i32 0
  %12 = load ptr, ptr %11, align 8, !tbaa !8
  %13 = load ptr, ptr %5, align 8, !tbaa !73
  %14 = call noundef zeroext i1 @_ZN11check_logic3impclEP4expr(ptr noundef nonnull align 8 dereferenceable(344) %12, ptr noundef %13)
  store i1 %14, ptr %3, align 1
  br label %16

15:                                               ; preds = %2
  store i1 true, ptr %3, align 1
  br label %16

16:                                               ; preds = %15, %10
  %17 = load i1, ptr %3, align 1
  ret i1 %17
}