; Function Attrs: mustprogress uwtable
define hidden noundef zeroext i1 @_ZN11check_logicclEP4expr(ptr noundef nonnull readonly align 8 captures(none) dereferenceable(8) %0, ptr noundef %1) local_unnamed_addr #7 align 2 {
  %3 = load ptr, ptr %0, align 8, !tbaa !3
  %.not = icmp eq ptr %3, null
  br i1 %.not, label %6, label %4

4:                                                ; preds = %2
  %5 = tail call noundef zeroext i1 @_ZN11check_logic3impclEP4expr(ptr noundef nonnull align 8 dereferenceable(344) %3, ptr noundef %1)
  br label %6

6:                                                ; preds = %2, %4
  %.0 = phi i1 [ %5, %4 ], [ true, %2 ]
  ret i1 %.0
}